; Function Attrs: nofree norecurse nosync nounwind memory(read, inaccessiblemem: none) uwtable
define i32 @Spl_ManCountMarkedFanins(ptr noundef readonly captures(none) %0, i32 noundef %1, ptr noundef readonly captures(none) %2) local_unnamed_addr #5 {
  %4 = getelementptr i8, ptr %0, i64 272
  %.val13 = load ptr, ptr %4, align 8, !tbaa !68
  %5 = getelementptr i8, ptr %.val13, i64 8
  %.val13.val = load ptr, ptr %5, align 8, !tbaa !30
  %6 = sext i32 %1 to i64
  %7 = getelementptr inbounds %struct.Vec_Int_t_, ptr %.val13.val, i64 %6
  %8 = getelementptr i8, ptr %7, i64 4
  %.val11 = load i32, ptr %8, align 4, !tbaa !35
  %9 = icmp sgt i32 %.val11, 0
  br i1 %9, label %.lr.ph, label %.critedge

.lr.ph:                                           ; preds = %3
  %10 = getelementptr i8, ptr %7, i64 8
  %.val = load ptr, ptr %10, align 8, !tbaa !33
  %11 = getelementptr i8, ptr %2, i64 8
  %.val12 = load ptr, ptr %11, align 8, !tbaa !50
  %wide.trip.count = zext nneg i32 %.val11 to i64
  br label %12

12:                                               ; preds = %.lr.ph, %12
  %indvars.iv = phi i64 [ 0, %.lr.ph ], [ %indvars.iv.next, %12 ]
  %.01014 = phi i32 [ 0, %.lr.ph ], [ %spec.select, %12 ]
  %13 = getelementptr inbounds nuw i32, ptr %.val, i64 %indvars.iv
  %14 = load i32, ptr %13, align 4, !tbaa !34
  %15 = ashr i32 %14, 5
  %16 = sext i32 %15 to i64
  %17 = getelementptr inbounds i32, ptr %.val12, i64 %16
  %18 = load i32, ptr %17, align 4, !tbaa !34
  %19 = and i32 %14, 31
  %20 = lshr i32 %18, %19
  %21 = and i32 %20, 1
  %spec.select = add nuw nsw i32 %21, %.01014
  %indvars.iv.next = add nuw nsw i64 %indvars.iv, 1
  %exitcond.not = icmp eq i64 %indvars.iv.next, %wide.trip.count
  br i1 %exitcond.not, label %.critedge, label %12, !llvm.loop !86

.critedge:                                        ; preds = %12, %3
  %.010.lcssa = phi i32 [ 0, %3 ], [ %spec.select, %12 ]
  ret i32 %.010.lcssa
}